target datalayout = "e-m:e-p270:32:32-p271:32:32-p272:64:64-i64:64-i128:128-f80:128-n8:16:32:64-S128"
target triple = "x86_64-pc-linux-gnu"

%"struct.duckdb_brotli::BrotliDecoderStateStruct" = type { i32, i32, %"struct.duckdb_brotli::BrotliBitReader", ptr, ptr, ptr, %union.anon, i64, i32, i32, i32, i32, i32, i32, [4 x i32], i32, i32, ptr, ptr, ptr, ptr, ptr, ptr, %"struct.duckdb_brotli::HuffmanTreeGroup", %"struct.duckdb_brotli::HuffmanTreeGroup", %"struct.duckdb_brotli::HuffmanTreeGroup", ptr, ptr, i32, i32, [3 x i64], i64, [3 x i64], [6 x i64], i64, i64, i64, ptr, ptr, i64, i64, i64, [65 x i32], i32, i32, i8, ptr, ptr, ptr, i64, i32, i32, i32, i32, i32, i32, i64, ptr, ptr, ptr, ptr, [8 x i32], %union.anon.0 }
%"struct.duckdb_brotli::BrotliBitReader" = type { i64, i64, ptr, ptr, ptr }
%union.anon = type { i64 }
%"struct.duckdb_brotli::HuffmanTreeGroup" = type { ptr, ptr, i16, i16, i16 }
%union.anon.0 = type { %"struct.duckdb_brotli::BrotliMetablockBodyArena" }
%"struct.duckdb_brotli::BrotliMetablockBodyArena" = type { [544 x i8], [544 x i64] }

; Function Attrs: mustprogress uwtable
define noundef i32 @_ZN13duckdb_brotli33BrotliDecoderHuffmanTreeGroupInitEPNS_24BrotliDecoderStateStructEPNS_16HuffmanTreeGroupEmmm(ptr noundef %0, ptr noundef %1, i64 noundef %2, i64 noundef %3, i64 noundef %4) #0 {
  %6 = alloca ptr, align 8
  %7 = alloca ptr, align 8
  %8 = alloca i64, align 8
  %9 = alloca i64, align 8
  %10 = alloca i64, align 8
  %11 = alloca i64, align 8
  %12 = alloca i64, align 8
  %13 = alloca i64, align 8
  %14 = alloca ptr, align 8
  store ptr %0, ptr %6, align 8, !tbaa !3
  store ptr %1, ptr %7, align 8, !tbaa !8
  store i64 %2, ptr %8, align 8, !tbaa !65
  store i64 %3, ptr %9, align 8, !tbaa !65
  store i64 %4, ptr %10, align 8, !tbaa !65
  call void @llvm.lifetime.start.p0(i64 8, ptr %11) #4
  %15 = load i64, ptr %9, align 8, !tbaa !65
  %16 = add i64 %15, 376
  store i64 %16, ptr %11, align 8, !tbaa !65
  call void @llvm.lifetime.start.p0(i64 8, ptr %12) #4
  %17 = load i64, ptr %10, align 8, !tbaa !65
  %18 = mul i64 4, %17
  %19 = load i64, ptr %11, align 8, !tbaa !65
  %20 = mul i64 %18, %19
  store i64 %20, ptr %12, align 8, !tbaa !65
  call void @llvm.lifetime.start.p0(i64 8, ptr %13) #4
  %21 = load i64, ptr %10, align 8, !tbaa !65
  %22 = mul i64 8, %21
  store i64 %22, ptr %13, align 8, !tbaa !65
  call void @llvm.lifetime.start.p0(i64 8, ptr %14) #4
  %23 = load ptr, ptr %6, align 8, !tbaa !3
  %24 = getelementptr inbounds nuw %"struct.duckdb_brotli::BrotliDecoderStateStruct", ptr %23, i32 0, i32 3
  %25 = load ptr, ptr %24, align 8, !tbaa !9
  %26 = load ptr, ptr %6, align 8, !tbaa !3
  %27 = getelementptr inbounds nuw %"struct.duckdb_brotli::BrotliDecoderStateStruct", ptr %26, i32 0, i32 5
  %28 = load ptr, ptr %27, align 8, !tbaa !25
  %29 = load i64, ptr %12, align 8, !tbaa !65
  %30 = load i64, ptr %13, align 8, !tbaa !65
  %31 = add i64 %29, %30
  %32 = call noundef ptr %25(ptr noundef %28, i64 noundef %31)
  store ptr %32, ptr %14, align 8, !tbaa !8
  %33 = load i64, ptr %8, align 8, !tbaa !65
  %34 = trunc i64 %33 to i16
  %35 = load ptr, ptr %7, align 8, !tbaa !8
  %36 = getelementptr inbounds nuw %"struct.duckdb_brotli::HuffmanTreeGroup", ptr %35, i32 0, i32 2
  store i16 %34, ptr %36, align 8, !tbaa !69
  %37 = load i64, ptr %9, align 8, !tbaa !65
  %38 = trunc i64 %37 to i16
  %39 = load ptr, ptr %7, align 8, !tbaa !8
  %40 = getelementptr inbounds nuw %"struct.duckdb_brotli::HuffmanTreeGroup", ptr %39, i32 0, i32 3
  store i16 %38, ptr %40, align 2, !tbaa !70
  %41 = load i64, ptr %10, align 8, !tbaa !65
  %42 = trunc i64 %41 to i16
  %43 = load ptr, ptr %7, align 8, !tbaa !8
  %44 = getelementptr inbounds nuw %"struct.duckdb_brotli::HuffmanTreeGroup", ptr %43, i32 0, i32 4
  store i16 %42, ptr %44, align 4, !tbaa !71
  %45 = load ptr, ptr %14, align 8, !tbaa !8
  %46 = load ptr, ptr %7, align 8, !tbaa !8
  %47 = getelementptr inbounds nuw %"struct.duckdb_brotli::HuffmanTreeGroup", ptr %46, i32 0, i32 0
  store ptr %45, ptr %47, align 8, !tbaa !72
  %48 = load ptr, ptr %14, align 8, !tbaa !8
  %49 = load i64, ptr %10, align 8, !tbaa !65
  %50 = getelementptr inbounds nuw ptr, ptr %48, i64 %49
  %51 = load ptr, ptr %7, align 8, !tbaa !8
  %52 = getelementptr inbounds nuw %"struct.duckdb_brotli::HuffmanTreeGroup", ptr %51, i32 0, i32 1
  store ptr %50, ptr %52, align 8, !tbaa !73
  %53 = load ptr, ptr %14, align 8, !tbaa !8
  %54 = icmp ne ptr %53, null
  %55 = xor i1 %54, true
  %56 = xor i1 %55, true
  %57 = zext i1 %56 to i32
  call void @llvm.lifetime.end.p0(i64 8, ptr %14) #4
  call void @llvm.lifetime.end.p0(i64 8, ptr %13) #4
  call void @llvm.lifetime.end.p0(i64 8, ptr %12) #4
  call void @llvm.lifetime.end.p0(i64 8, ptr %11) #4
  ret i32 %57
}