; Function Attrs: mustprogress uwtable
define noundef range(i32 0, 2) i32 @_ZN13duckdb_brotli33BrotliDecoderHuffmanTreeGroupInitEPNS_24BrotliDecoderStateStructEPNS_16HuffmanTreeGroupEmmm(ptr noundef readonly captures(none) %0, ptr noundef writeonly captures(none) initializes((0, 22)) %1, i64 noundef %2, i64 noundef %3, i64 noundef %4) local_unnamed_addr #0 {
  %6 = shl i64 %3, 2
  %7 = getelementptr inbounds nuw i8, ptr %0, i64 48
  %8 = load ptr, ptr %7, align 8, !tbaa !3
  %9 = getelementptr inbounds nuw i8, ptr %0, i64 64
  %10 = load ptr, ptr %9, align 8, !tbaa !22
  %reass.add = add i64 %6, 1512
  %reass.mul = mul i64 %reass.add, %4
  %11 = tail call noundef ptr %8(ptr noundef %10, i64 noundef %reass.mul)
  %12 = trunc i64 %2 to i16
  %13 = getelementptr inbounds nuw i8, ptr %1, i64 16
  store i16 %12, ptr %13, align 8, !tbaa !47
  %14 = trunc i64 %3 to i16
  %15 = getelementptr inbounds nuw i8, ptr %1, i64 18
  store i16 %14, ptr %15, align 2, !tbaa !48
  %16 = trunc i64 %4 to i16
  %17 = getelementptr inbounds nuw i8, ptr %1, i64 20
  store i16 %16, ptr %17, align 4, !tbaa !49
  store ptr %11, ptr %1, align 8, !tbaa !50
  %18 = getelementptr inbounds nuw ptr, ptr %11, i64 %4
  %19 = getelementptr inbounds nuw i8, ptr %1, i64 8
  store ptr %18, ptr %19, align 8, !tbaa !51
  %20 = icmp ne ptr %11, null
  %21 = zext i1 %20 to i32
  ret i32 %21
}